; Function Attrs: uwtable
define internal void @__cxx_global_array_dtor(ptr nocapture readnone %0) #3 section ".text.startup" {
entry:
  br label %arraydestroy.body

arraydestroy.body:                                ; preds = %_ZNSt10unique_ptrIN4cvc58internal7PrinterESt14default_deleteIS2_EED2Ev.exit, %entry
  %arraydestroy.elementPast = phi ptr [ getelementptr inbounds ([3 x %"class.std::unique_ptr"], ptr @_ZN4cvc58internal7Printer10d_printersE, i64 1, i64 0), %entry ], [ %arraydestroy.element, %_ZNSt10unique_ptrIN4cvc58internal7PrinterESt14default_deleteIS2_EED2Ev.exit ]
  %arraydestroy.element = getelementptr inbounds i8, ptr %arraydestroy.elementPast, i64 -8
  %1 = load ptr, ptr %arraydestroy.element, align 8
  %cmp.not.i = icmp eq ptr %1, null
  br i1 %cmp.not.i, label %_ZNSt10unique_ptrIN4cvc58internal7PrinterESt14default_deleteIS2_EED2Ev.exit, label %_ZNKSt14default_deleteIN4cvc58internal7PrinterEEclEPS2_.exit.i

_ZNKSt14default_deleteIN4cvc58internal7PrinterEEclEPS2_.exit.i: ; preds = %arraydestroy.body
  %vtable.i.i = load ptr, ptr %1, align 8
  %vfn.i.i = getelementptr inbounds i8, ptr %vtable.i.i, i64 8
  %2 = load ptr, ptr %vfn.i.i, align 8
  tail call void %2(ptr noundef nonnull align 8 dereferenceable(8) %1) #16
  br label %_ZNSt10unique_ptrIN4cvc58internal7PrinterESt14default_deleteIS2_EED2Ev.exit

_ZNSt10unique_ptrIN4cvc58internal7PrinterESt14default_deleteIS2_EED2Ev.exit: ; preds = %arraydestroy.body, %_ZNKSt14default_deleteIN4cvc58internal7PrinterEEclEPS2_.exit.i
  store ptr null, ptr %arraydestroy.element, align 8
  %arraydestroy.done = icmp eq ptr %arraydestroy.element, @_ZN4cvc58internal7Printer10d_printersE
  br i1 %arraydestroy.done, label %arraydestroy.done1, label %arraydestroy.body

arraydestroy.done1:                               ; preds = %_ZNSt10unique_ptrIN4cvc58internal7PrinterESt14default_deleteIS2_EED2Ev.exit
  ret void
}